; Function Attrs: nounwind uwtable
define hidden range(i32 0, 23) i32 @mi_dupenv_s(ptr noundef writeonly captures(address_is_null) %0, ptr noundef writeonly captures(address_is_null) %1, ptr noundef readonly captures(address_is_null) %2) local_unnamed_addr #0 {
  %4 = icmp eq ptr %0, null
  %5 = icmp eq ptr %2, null
  %or.cond = or i1 %4, %5
  br i1 %or.cond, label %17, label %6

6:                                                ; preds = %3
  %.not = icmp eq ptr %1, null
  br i1 %.not, label %8, label %7

7:                                                ; preds = %6
  store i64 0, ptr %1, align 8, !tbaa !14
  br label %8

8:                                                ; preds = %7, %6
  %9 = tail call ptr @getenv(ptr noundef nonnull %2) #8
  %10 = icmp eq ptr %9, null
  br i1 %10, label %11, label %12

11:                                               ; preds = %8
  store ptr null, ptr %0, align 8, !tbaa !16
  br label %17

12:                                               ; preds = %8
  %13 = tail call noalias ptr @mi_strdup(ptr noundef nonnull %9) #8
  store ptr %13, ptr %0, align 8, !tbaa !16
  %14 = icmp eq ptr %13, null
  %brmerge = or i1 %.not, %14
  %.mux = select i1 %14, i32 12, i32 0
  br i1 %brmerge, label %17, label %15

15:                                               ; preds = %12
  %16 = tail call i64 @strlen(ptr noundef nonnull dereferenceable(1) %9) #10
  store i64 %16, ptr %1, align 8, !tbaa !14
  br label %17

17:                                               ; preds = %12, %15, %11, %3
  %.0 = phi i32 [ 22, %3 ], [ %.mux, %12 ], [ 0, %15 ], [ 0, %11 ]
  ret i32 %.0
}